Certificate:
    Data:
        Version: 3 (0x2)
        Serial Number: 2 (0x2)
    Signature Algorithm: sha256WithRSAEncryption
        Issuer: C=SG, ST=SG, L=Singapore, O=Actility, OU=Actility, CN=sg-lab.int.actility.com/name=SG-LAB/emailAddress=gavin.yap@actility.com
        Validity
            Not Before: Jun  9 03:31:39 2017 GMT
            Not After : Jun  7 03:31:39 2027 GMT
        Subject: C=SG, ST=SG, L=Singapore, O=Actility, OU=Actility, CN=client/name=SG-LAB/emailAddress=gavin.yap@actility.com
        Subject Public Key Info:
            Public Key Algorithm: rsaEncryption
                Public-Key: (2048 bit)
                Modulus:
                    00:d9:e7:ee:f4:35:9e:90:28:51:16:d4:05:24:ee:
                    52:81:cf:73:bf:4f:83:39:8a:b5:65:f6:56:bc:37:
                    d6:dc:df:2d:69:d4:31:4c:01:46:5b:4b:b7:bf:aa:
                    85:91:2e:3e:46:72:5b:15:90:8b:ed:47:ce:f1:00:
                    05:a0:93:f8:b5:b6:fa:24:1a:75:90:2d:7b:72:3d:
                    14:34:62:73:b3:d5:1b:cf:f8:48:04:ba:6e:4c:ba:
                    8d:90:7c:27:bc:82:03:9d:48:7b:45:9b:d4:a1:a0:
                    14:e8:07:fb:db:f1:78:de:ed:ca:15:e9:c8:a6:dd:
                    05:8e:8d:0d:ca:c5:50:04:df:62:fd:7a:c6:ee:36:
                    e2:76:4d:ba:74:cf:21:34:f9:0d:96:82:25:be:ea:
                    01:bb:13:21:0a:29:ba:ad:52:53:6c:b8:54:fc:9d:
                    1e:6d:bb:b2:bb:2e:7a:73:10:43:46:0e:b6:52:dc:
                    28:01:08:41:ab:2b:fd:d3:29:48:e0:8c:a2:93:3e:
                    f9:7e:40:f7:32:72:d8:57:04:86:72:c3:9d:a8:4c:
                    1a:a1:88:56:d2:f1:63:2a:49:ee:13:08:ba:1e:b9:
                    d1:28:8a:50:e9:46:f9:2c:0c:2e:65:65:58:24:d4:
                    78:a6:57:29:5b:e5:2c:f2:03:89:71:4b:8b:fe:27:
                    84:d7
                Exponent: 65537 (0x10001)
        X509v3 extensions:
            X509v3 Basic Constraints: 
                CA:FALSE
            Netscape Comment: 
                Easy-RSA Generated Certificate
            X509v3 Subject Key Identifier: 
                3D:FC:8C:E7:A4:D9:5A:81:78:D1:51:7F:80:49:29:C9:65:50:A5:EC
            X509v3 Authority Key Identifier: 
                keyid:AD:FD:FE:9B:3D:17:92:A2:6D:86:E4:37:9C:FC:6B:E1:D2:88:C4:73
                DirName:/C=SG/ST=SG/L=Singapore/O=Actility/OU=Actility/CN=sg-lab.int.actility.com/name=SG-LAB/emailAddress=gavin.yap@actility.com
                serial:89:21:D1:5E:CB:42:A4:EC

            X509v3 Extended Key Usage: 
                TLS Web Client Authentication
            X509v3 Key Usage: 
                Digital Signature
    Signature Algorithm: sha256WithRSAEncryption
         33:50:2c:c6:23:e8:90:de:7d:2c:22:fc:8c:e7:e0:d0:77:91:
         50:cd:c2:56:10:d9:46:70:a2:35:2e:35:77:fe:26:99:72:6b:
         ed:3d:06:2a:af:05:f1:eb:b1:1c:6a:50:04:d0:40:5f:af:2f:
         7d:a9:51:6a:12:df:d6:af:68:04:2b:00:7c:91:f0:26:97:50:
         e5:f0:56:7a:5c:23:ea:4d:26:bc:3a:38:af:37:b9:7c:77:de:
         2a:0b:ea:b2:4e:5c:3b:1a:fa:c4:58:f3:00:23:c4:db:7a:a7:
         59:cf:0a:48:6c:07:7d:3d:06:dc:c7:8b:82:b7:8e:30:8a:d4:
         9f:52:ba:96:57:ed:fb:b5:09:ad:89:5a:eb:fc:f9:1f:2a:4b:
         4e:b0:66:78:c9:7a:48:97:07:5b:a4:3f:ce:36:b1:60:2f:ea:
         39:15:85:5f:ca:9e:5c:81:f8:d6:91:d0:44:0d:57:96:23:e0:
         ef:78:a9:64:8e:ee:21:cf:4c:11:f0:9d:7b:55:c7:c7:41:1b:
         4f:ea:2e:04:27:45:12:38:78:9b:06:77:25:68:f2:06:f7:b3:
         69:be:4e:45:ee:ef:62:38:85:6a:97:d1:10:ee:bb:ee:bd:fc:
         23:3e:62:38:9f:21:46:10:23:49:e3:fa:76:5e:e0:48:30:d5:
         9b:26:80:b6
-----BEGIN CERTIFICATE-----
MIIFLzCCBBegAwIBAgIBAjANBgkqhkiG9w0BAQsFADCBrjELMAkGA1UEBhMCU0cx
CzAJBgNVBAgTAlNHMRIwEAYDVQQHEwlTaW5nYXBvcmUxETAPBgNVBAoTCEFjdGls
aXR5MREwDwYDVQQLEwhBY3RpbGl0eTEgMB4GA1UEAxMXc2ctbGFiLmludC5hY3Rp
bGl0eS5jb20xDzANBgNVBCkTBlNHLUxBQjElMCMGCSqGSIb3DQEJARYWZ2F2aW4u
eWFwQGFjdGlsaXR5LmNvbTAeFw0xNzA2MDkwMzMxMzlaFw0yNzA2MDcwMzMxMzla
MIGdMQswCQYDVQQGEwJTRzELMAkGA1UECBMCU0cxEjAQBgNVBAcTCVNpbmdhcG9y
ZTERMA8GA1UEChMIQWN0aWxpdHkxETAPBgNVBAsTCEFjdGlsaXR5MQ8wDQYDVQQD
EwZjbGllbnQxDzANBgNVBCkTBlNHLUxBQjElMCMGCSqGSIb3DQEJARYWZ2F2aW4u
eWFwQGFjdGlsaXR5LmNvbTCCASIwDQYJKoZIhvcNAQEBBQADggEPADCCAQoCggEB
ANnn7vQ1npAoURbUBSTuUoHPc79PgzmKtWX2Vrw31tzfLWnUMUwBRltLt7+qhZEu
PkZyWxWQi+1HzvEABaCT+LW2+iQadZAte3I9FDRic7PVG8/4SAS6bky6jZB8J7yC
A51Ie0Wb1KGgFOgH+9vxeN7tyhXpyKbdBY6NDcrFUATfYv16xu424nZNunTPITT5
DZaCJb7qAbsTIQopuq1SU2y4VPydHm27srsuenMQQ0YOtlLcKAEIQasr/dMpSOCM
opM++X5A9zJy2FcEhnLDnahMGqGIVtLxYypJ7hMIuh650SiKUOlG+SwMLmVlWCTU
eKZXKVvlLPIDiXFLi/4nhNcCAwEAAaOCAWUwggFhMAkGA1UdEwQCMAAwLQYJYIZI
AYb4QgENBCAWHkVhc3ktUlNBIEdlbmVyYXRlZCBDZXJ0aWZpY2F0ZTAdBgNVHQ4E
FgQUPfyM56TZWoF40VF/gEkpyWVQpewwgeMGA1UdIwSB2zCB2IAUrf3+mz0XkqJt
huQ3nPxr4dKIxHOhgbSkgbEwga4xCzAJBgNVBAYTAlNHMQswCQYDVQQIEwJTRzES
MBAGA1UEBxMJU2luZ2Fwb3JlMREwDwYDVQQKEwhBY3RpbGl0eTERMA8GA1UECxMI
QWN0aWxpdHkxIDAeBgNVBAMTF3NnLWxhYi5pbnQuYWN0aWxpdHkuY29tMQ8wDQYD
VQQpEwZTRy1MQUIxJTAjBgkqhkiG9w0BCQEWFmdhdmluLnlhcEBhY3RpbGl0eS5j
b22CCQCJIdFey0Kk7DATBgNVHSUEDDAKBggrBgEFBQcDAjALBgNVHQ8EBAMCB4Aw
DQYJKoZIhvcNAQELBQADggEBADNQLMYj6JDefSwi/Izn4NB3kVDNwlYQ2UZwojUu
NXf+Jplya+09BiqvBfHrsRxqUATQQF+vL32pUWoS39avaAQrAHyR8CaXUOXwVnpc
I+pNJrw6OK83uXx33ioL6rJOXDsa+sRY8wAjxNt6p1nPCkhsB309BtzHi4K3jjCK
1J9SupZX7fu1Ca2JWuv8+R8qS06wZnjJekiXB1ukP842sWAv6jkVhV/KnlyB+NaR
0EQNV5Yj4O94qWSO7iHPTBHwnXtVx8dBG0/qLgQnRRI4eJsGdyVo8gb3s2m+TkXu
72I4hWqX0RDuu+69/CM+YjifIUYQI0nj+nZe4Egw1ZsmgLY=
-----END CERTIFICATE-----
